target datalayout = "e-m:e-p270:32:32-p271:32:32-p272:64:64-i64:64-i128:128-f80:128-n8:16:32:64-S128"
target triple = "x86_64-pc-linux-gnu"

%struct.nk_vec2 = type { float, float }
%union.nk_handle = type { ptr }
%struct.nk_image = type { %union.nk_handle, i16, i16, [4 x i16] }

; Function Attrs: nounwind uwtable
define i32 @nk_strlen(ptr noundef %0) #0 {
  %2 = alloca ptr, align 8
  %3 = alloca i32, align 4
  store ptr %0, ptr %2, align 8, !tbaa !26
  call void @llvm.lifetime.start.p0(i64 4, ptr %3) #10
  store i32 0, ptr %3, align 4, !tbaa !13
  br label %4

4:                                                ; preds = %15, %1
  %5 = load ptr, ptr %2, align 8, !tbaa !26
  %6 = icmp ne ptr %5, null
  br i1 %6, label %7, label %13

7:                                                ; preds = %4
  %8 = load ptr, ptr %2, align 8, !tbaa !26
  %9 = getelementptr inbounds nuw i8, ptr %8, i32 1
  store ptr %9, ptr %2, align 8, !tbaa !26
  %10 = load i8, ptr %8, align 1, !tbaa !28
  %11 = sext i8 %10 to i32
  %12 = icmp ne i32 %11, 0
  br label %13

13:                                               ; preds = %7, %4
  %14 = phi i1 [ false, %4 ], [ %12, %7 ]
  br i1 %14, label %15, label %18

15:                                               ; preds = %13
  %16 = load i32, ptr %3, align 4, !tbaa !13
  %17 = add nsw i32 %16, 1
  store i32 %17, ptr %3, align 4, !tbaa !13
  br label %4, !llvm.loop !29

18:                                               ; preds = %13
  %19 = load i32, ptr %3, align 4, !tbaa !13
  call void @llvm.lifetime.end.p0(i64 4, ptr %3) #10
  ret i32 %19
}

; Function Attrs: nounwind uwtable
define i32 @nk_combo_begin_image_label(ptr noundef %0, ptr noundef %1, ptr noundef byval(%struct.nk_image) align 8 %2, <2 x float> %3) #2 {
  %5 = alloca %struct.nk_vec2, align 4
  %6 = alloca ptr, align 8
  %7 = alloca ptr, align 8
  store <2 x float> %3, ptr %5, align 4
  store ptr %0, ptr %6, align 8, !tbaa !372
  store ptr %1, ptr %7, align 8, !tbaa !26
  %8 = load ptr, ptr %6, align 8, !tbaa !372
  %9 = load ptr, ptr %7, align 8, !tbaa !26
  %10 = load ptr, ptr %7, align 8, !tbaa !26
  %11 = call i32 @nk_strlen(ptr noundef %10)
  %12 = load <2 x float>, ptr %5, align 4
  %13 = call i32 @nk_combo_begin_image_text(ptr noundef %8, ptr noundef %9, i32 noundef %11, ptr noundef byval(%struct.nk_image) align 8 %2, <2 x float> %12)
  ret i32 %13
}