; Function Attrs: nounwind uwtable
define range(i32 0, 2) i32 @nk_combo_begin_image_label(ptr noundef %0, ptr noundef %1, ptr noundef readonly byval(%struct.nk_image) align 8 captures(none) %2, <2 x float> %3) local_unnamed_addr #21 {
  %.not5.i = icmp eq ptr %1, null
  br i1 %.not5.i, label %nk_strlen.exit, label %.lr.ph.i.preheader

.lr.ph.i.preheader:                               ; preds = %4
  %5 = load i8, ptr %1, align 1, !tbaa !9
  %.not4.i3 = icmp eq i8 %5, 0
  br i1 %.not4.i3, label %nk_strlen.exit, label %.lr.ph.i

.lr.ph.i:                                         ; preds = %.lr.ph.i.preheader, %.lr.ph.i
  %.036.i5 = phi ptr [ %6, %.lr.ph.i ], [ %1, %.lr.ph.i.preheader ]
  %.07.i4 = phi i32 [ %7, %.lr.ph.i ], [ 0, %.lr.ph.i.preheader ]
  %6 = getelementptr inbounds nuw i8, ptr %.036.i5, i64 1
  %7 = add nuw nsw i32 %.07.i4, 1
  %8 = load i8, ptr %6, align 1, !tbaa !9
  %.not4.i = icmp eq i8 %8, 0
  br i1 %.not4.i, label %nk_strlen.exit, label %.lr.ph.i

nk_strlen.exit:                                   ; preds = %.lr.ph.i, %.lr.ph.i.preheader, %4
  %.0.lcssa.i = phi i32 [ 0, %4 ], [ 0, %.lr.ph.i.preheader ], [ %7, %.lr.ph.i ]
  %9 = tail call i32 @nk_combo_begin_image_text(ptr noundef %0, ptr noundef %1, i32 noundef %.0.lcssa.i, ptr noundef nonnull byval(%struct.nk_image) align 8 %2, <2 x float> %3)
  ret i32 %9
}